; Function Attrs: mustprogress nounwind uwtable
define noundef i32 @_ZN14colvarproxy_io19close_input_streamsEv(ptr noundef nonnull align 8 dereferenceable(224) %0) local_unnamed_addr #0 align 2 personality ptr @__gxx_personality_v0 {
  %2 = getelementptr inbounds nuw i8, ptr %0, i64 112
  %3 = getelementptr inbounds nuw i8, ptr %0, i64 136
  %4 = load ptr, ptr %3, align 8, !tbaa !91
  %5 = getelementptr inbounds nuw i8, ptr %0, i64 120
  %.not3 = icmp eq ptr %4, %5
  br i1 %.not3, label %._crit_edge, label %.lr.ph

._crit_edge:                                      ; preds = %20, %1
  %6 = getelementptr inbounds nuw i8, ptr %0, i64 128
  %7 = load ptr, ptr %6, align 8, !tbaa !68
  invoke void @_ZNSt8_Rb_treeINSt7__cxx1112basic_stringIcSt11char_traitsIcESaIcEEESt4pairIKS5_PSiESt10_Select1stIS9_ESt4lessIS5_ESaIS9_EE8_M_eraseEPSt13_Rb_tree_nodeIS9_E(ptr noundef nonnull align 8 dereferenceable(48) %2, ptr noundef %7)
          to label %_ZNSt3mapINSt7__cxx1112basic_stringIcSt11char_traitsIcESaIcEEEPSiSt4lessIS5_ESaISt4pairIKS5_S6_EEE5clearEv.exit unwind label %8

8:                                                ; preds = %._crit_edge
  %9 = landingpad { ptr, i32 }
          catch ptr null
  %10 = extractvalue { ptr, i32 } %9, 0
  tail call void @__clang_call_terminate(ptr %10) #28
  unreachable

_ZNSt3mapINSt7__cxx1112basic_stringIcSt11char_traitsIcESaIcEEEPSiSt4lessIS5_ESaISt4pairIKS5_S6_EEE5clearEv.exit: ; preds = %._crit_edge
  store ptr null, ptr %6, align 8, !tbaa !68
  store ptr %5, ptr %3, align 8, !tbaa !91
  %11 = getelementptr inbounds nuw i8, ptr %0, i64 144
  store ptr %5, ptr %11, align 8, !tbaa !95
  %12 = getelementptr inbounds nuw i8, ptr %0, i64 152
  store i64 0, ptr %12, align 8, !tbaa !96
  ret i32 0

.lr.ph:                                           ; preds = %1, %20
  %.sroa.01.04 = phi ptr [ %21, %20 ], [ %4, %1 ]
  %13 = getelementptr inbounds nuw i8, ptr %.sroa.01.04, i64 64
  %14 = load ptr, ptr %13, align 8, !tbaa !105
  %15 = icmp eq ptr %14, null
  br i1 %15, label %20, label %16

16:                                               ; preds = %.lr.ph
  %17 = load ptr, ptr %14, align 8, !tbaa !27
  %18 = getelementptr inbounds nuw i8, ptr %17, i64 8
  %19 = load ptr, ptr %18, align 8
  tail call void %19(ptr noundef nonnull align 8 dereferenceable(16) %14) #22
  br label %20

20:                                               ; preds = %.lr.ph, %16
  %21 = tail call noundef ptr @_ZSt18_Rb_tree_incrementPSt18_Rb_tree_node_base(ptr noundef nonnull %.sroa.01.04) #27
  %.not = icmp eq ptr %21, %5
  br i1 %.not, label %._crit_edge, label %.lr.ph, !llvm.loop !107
}